target datalayout = "e-m:e-p270:32:32-p271:32:32-p272:64:64-i64:64-i128:128-f80:128-n8:16:32:64-S128"
target triple = "x86_64-pc-linux-gnu"

@.str.7 = private unnamed_addr constant [8 x i8] c"DataDir\00", align 1
@.str.8 = private unnamed_addr constant [10 x i8] c"ConfigDir\00", align 1
@.str.9 = private unnamed_addr constant [11 x i8] c"LuaEnabled\00", align 1

; Function Attrs: nounwind uwtable
define internal ptr @_handle_get_property(ptr noundef %0, ptr noundef %1, ptr noundef %2, ptr noundef %3, ptr noundef %4, ptr noundef %5, ptr noundef %6) #0 {
  %8 = alloca ptr, align 8
  %9 = alloca ptr, align 8
  %10 = alloca ptr, align 8
  %11 = alloca ptr, align 8
  %12 = alloca ptr, align 8
  %13 = alloca ptr, align 8
  %14 = alloca ptr, align 8
  %15 = alloca ptr, align 8
  %16 = alloca [4096 x i8], align 16
  %17 = alloca [4096 x i8], align 16
  store ptr %0, ptr %8, align 8, !tbaa !18
  store ptr %1, ptr %9, align 8, !tbaa !19
  store ptr %2, ptr %10, align 8, !tbaa !19
  store ptr %3, ptr %11, align 8, !tbaa !19
  store ptr %4, ptr %12, align 8, !tbaa !19
  store ptr %5, ptr %13, align 8, !tbaa !36
  store ptr %6, ptr %14, align 8, !tbaa !21
  call void @llvm.lifetime.start.p0(i64 8, ptr %15) #5
  store ptr null, ptr %15, align 8, !tbaa !31
  %18 = load ptr, ptr %12, align 8, !tbaa !19
  %19 = call i32 @g_strcmp0(ptr noundef %18, ptr noundef @.str.7)
  %20 = icmp ne i32 %19, 0
  br i1 %20, label %25, label %21

21:                                               ; preds = %7
  call void @llvm.lifetime.start.p0(i64 4096, ptr %16) #5
  call void @llvm.memset.p0.i64(ptr align 16 %16, i8 0, i64 4096, i1 false)
  %22 = getelementptr inbounds [4096 x i8], ptr %16, i64 0, i64 0
  call void @dt_loc_get_datadir(ptr noundef %22, i64 noundef 4096)
  %23 = getelementptr inbounds [4096 x i8], ptr %16, i64 0, i64 0
  %24 = call ptr @g_variant_new_string(ptr noundef %23)
  store ptr %24, ptr %15, align 8, !tbaa !31
  call void @llvm.lifetime.end.p0(i64 4096, ptr %16) #5
  br label %41

25:                                               ; preds = %7
  %26 = load ptr, ptr %12, align 8, !tbaa !19
  %27 = call i32 @g_strcmp0(ptr noundef %26, ptr noundef @.str.8)
  %28 = icmp ne i32 %27, 0
  br i1 %28, label %33, label %29

29:                                               ; preds = %25
  call void @llvm.lifetime.start.p0(i64 4096, ptr %17) #5
  call void @llvm.memset.p0.i64(ptr align 16 %17, i8 0, i64 4096, i1 false)
  %30 = getelementptr inbounds [4096 x i8], ptr %17, i64 0, i64 0
  call void @dt_loc_get_user_config_dir(ptr noundef %30, i64 noundef 4096)
  %31 = getelementptr inbounds [4096 x i8], ptr %17, i64 0, i64 0
  %32 = call ptr @g_variant_new_string(ptr noundef %31)
  store ptr %32, ptr %15, align 8, !tbaa !31
  call void @llvm.lifetime.end.p0(i64 4096, ptr %17) #5
  br label %40

33:                                               ; preds = %25
  %34 = load ptr, ptr %12, align 8, !tbaa !19
  %35 = call i32 @g_strcmp0(ptr noundef %34, ptr noundef @.str.9)
  %36 = icmp ne i32 %35, 0
  br i1 %36, label %39, label %37

37:                                               ; preds = %33
  %38 = call ptr @g_variant_new_boolean(i32 noundef 0)
  store ptr %38, ptr %15, align 8, !tbaa !31
  br label %39

39:                                               ; preds = %37, %33
  br label %40

40:                                               ; preds = %39, %29
  br label %41

41:                                               ; preds = %40, %21
  %42 = load ptr, ptr %15, align 8, !tbaa !31
  call void @llvm.lifetime.end.p0(i64 8, ptr %15) #5
  ret ptr %42
}