; Function Attrs: nounwind uwtable
define internal ptr @_handle_get_property(ptr readnone captures(none) %0, ptr readnone captures(none) %1, ptr readnone captures(none) %2, ptr readnone captures(none) %3, ptr noundef %4, ptr readnone captures(none) %5, ptr readnone captures(none) %6) #0 {
  %8 = alloca [4096 x i8], align 16
  %9 = alloca [4096 x i8], align 16
  %10 = tail call i32 @g_strcmp0(ptr noundef %4, ptr noundef nonnull @.str.7) #8
  %.not = icmp eq i32 %10, 0
  br i1 %.not, label %11, label %13

11:                                               ; preds = %7
  call void @llvm.lifetime.start.p0(i64 4096, ptr nonnull %8) #8
  call void @llvm.memset.p0.i64(ptr noundef nonnull align 16 dereferenceable(4096) %8, i8 0, i64 4096, i1 false)
  call void @dt_loc_get_datadir(ptr noundef nonnull %8, i64 noundef 4096) #8
  %12 = call ptr @g_variant_new_string(ptr noundef nonnull %8) #8
  call void @llvm.lifetime.end.p0(i64 4096, ptr nonnull %8) #8
  br label %21

13:                                               ; preds = %7
  %14 = tail call i32 @g_strcmp0(ptr noundef %4, ptr noundef nonnull @.str.8) #8
  %.not4 = icmp eq i32 %14, 0
  br i1 %.not4, label %15, label %17

15:                                               ; preds = %13
  call void @llvm.lifetime.start.p0(i64 4096, ptr nonnull %9) #8
  call void @llvm.memset.p0.i64(ptr noundef nonnull align 16 dereferenceable(4096) %9, i8 0, i64 4096, i1 false)
  call void @dt_loc_get_user_config_dir(ptr noundef nonnull %9, i64 noundef 4096) #8
  %16 = call ptr @g_variant_new_string(ptr noundef nonnull %9) #8
  call void @llvm.lifetime.end.p0(i64 4096, ptr nonnull %9) #8
  br label %21

17:                                               ; preds = %13
  %18 = tail call i32 @g_strcmp0(ptr noundef %4, ptr noundef nonnull @.str.9) #8
  %.not5 = icmp eq i32 %18, 0
  br i1 %.not5, label %19, label %21

19:                                               ; preds = %17
  %20 = tail call ptr @g_variant_new_boolean(i32 noundef 0) #8
  br label %21

21:                                               ; preds = %15, %19, %17, %11
  %.0 = phi ptr [ null, %17 ], [ %20, %19 ], [ %16, %15 ], [ %12, %11 ]
  ret ptr %.0
}